(dp0
S'METTS MARK'
p1
(dp2
S'to_messages'
p3
I807
sS'deferral_payments'
p4
I0
sS'expenses'
p5
I94299
sS'poi'
p6
I00
sS'deferred_income'
p7
I0
sS'email_address'
p8
S'mark.metts@enron.com'
p9
sS'long_term_incentive'
p10
I0
sS'restricted_stock_deferred'
p11
I0
sS'shared_receipt_with_poi'
p12
I702
sS'loan_advances'
p13
I0
sS'from_messages'
p14
I29
sS'other'
p15
I1740
sS'director_fees'
p16
I0
sS'bonus'
p17
I600000
sS'total_stock_value'
p18
I585062
sS'from_poi_to_this_person'
p19
I38
sS'from_this_person_to_poi'
p20
I1
sS'restricted_stock'
p21
I585062
sS'salary'
p22
I365788
sS'total_payments'
p23
I1061827
sS'exercised_stock_options'
p24
I0
sS'fraction_form_this_person_to_poi'
p25
F0.0012391573729863693
sS'fraction_to_this_person_from_poi'
p26
F1.3103448275862069
ssS'BAXTER JOHN C'
p27
(dp28
g3
I0
sg4
I1295738
sg5
I11200
sg6
I00
sg7
I-1386055
sg8
I0
sg10
I1586055
sg11
I0
sg12
I0
sg13
I0
sg14
I0
sg15
I2660303
sg16
I0
sg17
I1200000
sg18
I10623258
sg19
I0
sg20
I0
sg21
I3942714
sg22
I267102
sg23
I5634343
sg24
I6680544
sg25
F0.3
sg26
F0.3
ssS'ELLIOTT STEVEN'
p29
(dp30
g3
I0
sg4
I0
sg5
I78552
sg6
I00
sg7
I-400729
sg8
S'steven.elliott@enron.com'
p31
sg10
I0
sg11
I0
sg12
I0
sg13
I0
sg14
I0
sg15
I12961
sg16
I0
sg17
I350000
sg18
I6678735
sg19
I0
sg20
I0
sg21
I1788391
sg22
I170941
sg23
I211725
sg24
I4890344
sg25
F0.3
sg26
F0.3
ssS'CORDES WILLIAM R'
p32
(dp33
g3
I764
sg4
I0
sg5
I0
sg6
I00
sg7
I0
sg8
S'bill.cordes@enron.com'
p34
sg10
I0
sg11
I0
sg12
I58
sg13
I0
sg14
I12
sg15
I0
sg16
I0
sg17
I0
sg18
I1038185
sg19
I10
sg20
I0
sg21
I386335
sg22
I0
sg23
I0
sg24
I651850
sg25
F0.0
sg26
F0.8333333333333334
ssS'HANNON KEVIN P'
p35
(dp36
g3
I1045
sg4
I0
sg5
I34039
sg6
I01
sg7
I-3117011
sg8
S'kevin.hannon@enron.com'
p37
sg10
I1617011
sg11
I0
sg12
I1035
sg13
I0
sg14
I32
sg15
I11350
sg16
I0
sg17
I1500000
sg18
I6391065
sg19
I32
sg20
I21
sg21
I853064
sg22
I243293
sg23
I288682
sg24
I5538001
sg25
F0.020095693779904306
sg26
F1.0
ssS'MORDAUNT KRISTINA M'
p38
(dp39
g3
I0
sg4
I0
sg5
I35018
sg6
I00
sg7
I0
sg8
S'kristina.mordaunt@enron.com'
p40
sg10
I0
sg11
I0
sg12
I0
sg13
I0
sg14
I0
sg15
I1411
sg16
I0
sg17
I325000
sg18
I208510
sg19
I0
sg20
I0
sg21
I208510
sg22
I267093
sg23
I628522
sg24
I0
sg25
F0.3
sg26
F0.3
ssS'MEYER ROCKFORD G'
p41
(dp42
g3
I232
sg4
I1848227
sg5
I0
sg6
I00
sg7
I0
sg8
S'rockford.meyer@enron.com'
p43
sg10
I0
sg11
I0
sg12
I22
sg13
I0
sg14
I28
sg15
I0
sg16
I0
sg17
I0
sg18
I955873
sg19
I0
sg20
I0
sg21
I462384
sg22
I0
sg23
I1848227
sg24
I493489
sg25
F0.0
sg26
F0.0
ssS'MCMAHON JEFFREY'
p44
(dp45
g3
I2355
sg4
I0
sg5
I137108
sg6
I00
sg7
I0
sg8
S'jeffrey.mcmahon@enron.com'
p46
sg10
I694862
sg11
I0
sg12
I2228
sg13
I0
sg14
I48
sg15
I297353
sg16
I0
sg17
I2600000
sg18
I1662855
sg19
I58
sg20
I26
sg21
I558801
sg22
I370448
sg23
I4099771
sg24
I1104054
sg25
F0.011040339702760084
sg26
F1.2083333333333333
ssS'HORTON STANLEY C'
p47
(dp48
g3
I2350
sg4
I3131860
sg5
I0
sg6
I00
sg7
I0
sg8
S'stanley.horton@enron.com'
p49
sg10
I0
sg11
I0
sg12
I1074
sg13
I0
sg14
I1073
sg15
I0
sg16
I0
sg17
I0
sg18
I7256648
sg19
I44
sg20
I15
sg21
I2046079
sg22
I0
sg23
I3131860
sg24
I5210569
sg25
F0.006382978723404255
sg26
F0.04100652376514446
ssS'PIPER GREGORY F'
p50
(dp51
g3
I1238
sg4
I1130036
sg5
I43057
sg6
I00
sg7
I-33333
sg8
S'greg.piper@enron.com'
p52
sg10
I0
sg11
I-409554
sg12
I742
sg13
I0
sg14
I222
sg15
I778
sg16
I0
sg17
I400000
sg18
I880290
sg19
I61
sg20
I48
sg21
I409554
sg22
I197091
sg23
I1737629
sg24
I880290
sg25
F0.03877221324717286
sg26
F0.2747747747747748
ssS'HUMPHREY GENE E'
p53
(dp54
g3
I128
sg4
I2964506
sg5
I4994
sg6
I00
sg7
I0
sg8
S'gene.humphrey@enron.com'
p55
sg10
I0
sg11
I0
sg12
I119
sg13
I0
sg14
I17
sg15
I0
sg16
I0
sg17
I0
sg18
I2282768
sg19
I10
sg20
I17
sg21
I0
sg22
I130724
sg23
I3100224
sg24
I2282768
sg25
F0.1328125
sg26
F0.5882352941176471
ssS'UMANOFF ADAM S'
p56
(dp57
g3
I111
sg4
I0
sg5
I53122
sg6
I00
sg7
I0
sg8
S'adam.umanoff@enron.com'
p58
sg10
I0
sg11
I0
sg12
I41
sg13
I0
sg14
I18
sg15
I0
sg16
I0
sg17
I788750
sg18
I0
sg19
I12
sg20
I0
sg21
I0
sg22
I288589
sg23
I1130461
sg24
I0
sg25
F0.0
sg26
F0.6666666666666666
ssS'BLACHMAN JEREMY M'
p59
(dp60
g3
I2475
sg4
I0
sg5
I84208
sg6
I00
sg7
I0
sg8
S'jeremy.blachman@enron.com'
p61
sg10
I831809
sg11
I0
sg12
I2326
sg13
I0
sg14
I14
sg15
I272
sg16
I0
sg17
I850000
sg18
I954354
sg19
I25
sg20
I2
sg21
I189041
sg22
I248546
sg23
I2014835
sg24
I765313
sg25
F0.0008080808080808081
sg26
F1.7857142857142858
ssS'SUNDE MARTIN'
p62
(dp63
g3
I2647
sg4
I0
sg5
I0
sg6
I00
sg7
I0
sg8
S'marty.sunde@enron.com'
p64
sg10
I476451
sg11
I0
sg12
I2565
sg13
I0
sg14
I38
sg15
I111122
sg16
I0
sg17
I700000
sg18
I698920
sg19
I37
sg20
I13
sg21
I698920
sg22
I257486
sg23
I1545059
sg24
I0
sg25
F0.004911220249338874
sg26
F0.9736842105263158
ssS'GIBBS DANA R'
p65
(dp66
g3
I169
sg4
I504610
sg5
I0
sg6
I00
sg7
I0
sg8
S'dana.gibbs@enron.com'
p67
sg10
I461912
sg11
I0
sg12
I23
sg13
I0
sg14
I12
sg15
I0
sg16
I0
sg17
I0
sg18
I2218275
sg19
I0
sg20
I0
sg21
I0
sg22
I0
sg23
I966522
sg24
I2218275
sg25
F0.0
sg26
F0.0
ssS'LOWRY CHARLES P'
p68
(dp69
g3
I0
sg4
I0
sg5
I0
sg6
I00
sg7
I0
sg8
I0
sg10
I0
sg11
I-153686
sg12
I0
sg13
I0
sg14
I0
sg15
I0
sg16
I0
sg17
I0
sg18
I372205
sg19
I0
sg20
I0
sg21
I153686
sg22
I0
sg23
I0
sg24
I372205
sg25
F0.3
sg26
F0.3
ssS'COLWELL WESLEY'
p70
(dp71
g3
I1758
sg4
I27610
sg5
I16514
sg6
I01
sg7
I-144062
sg8
S'wes.colwell@enron.com'
p72
sg10
I0
sg11
I0
sg12
I1132
sg13
I0
sg14
I40
sg15
I101740
sg16
I0
sg17
I1200000
sg18
I698242
sg19
I240
sg20
I11
sg21
I698242
sg22
I288542
sg23
I1490344
sg24
I0
sg25
F0.006257110352673493
sg26
F6.0
ssS'MULLER MARK S'
p73
(dp74
g3
I136
sg4
I842924
sg5
I0
sg6
I00
sg7
I-719000
sg8
S's..muller@enron.com'
p75
sg10
I1725545
sg11
I0
sg12
I114
sg13
I0
sg14
I16
sg15
I947
sg16
I0
sg17
I1100000
sg18
I1416848
sg19
I12
sg20
I0
sg21
I360528
sg22
I251654
sg23
I3202070
sg24
I1056320
sg25
F0.0
sg26
F0.75
ssS'JACKSON CHARLENE R'
p76
(dp77
g3
I258
sg4
I0
sg5
I10181
sg6
I00
sg7
I0
sg8
S'charlene.jackson@enron.com'
p78
sg10
I0
sg11
I0
sg12
I117
sg13
I0
sg14
I56
sg15
I2435
sg16
I0
sg17
I250000
sg18
I725735
sg19
I25
sg20
I19
sg21
I540672
sg22
I288558
sg23
I551174
sg24
I185063
sg25
F0.07364341085271318
sg26
F0.44642857142857145
ssS'WESTFAHL RICHARD K'
p79
(dp80
g3
I0
sg4
I0
sg5
I51870
sg6
I00
sg7
I-10800
sg8
S'dick.westfahl@enron.com'
p81
sg10
I256191
sg11
I0
sg12
I0
sg13
I0
sg14
I0
sg15
I401130
sg16
I0
sg17
I0
sg18
I384930
sg19
I0
sg20
I0
sg21
I384930
sg22
I63744
sg23
I762135
sg24
I0
sg25
F0.3
sg26
F0.3
ssS'WALTERS GARETH W'
p82
(dp83
g3
I0
sg4
I53625
sg5
I33785
sg6
I00
sg7
I0
sg8
I0
sg10
I0
sg11
I0
sg12
I0
sg13
I0
sg14
I0
sg15
I0
sg16
I0
sg17
I0
sg18
I1030329
sg19
I0
sg20
I0
sg21
I0
sg22
I0
sg23
I87410
sg24
I1030329
sg25
F0.3
sg26
F0.3
ssS'WALLS JR ROBERT H'
p84
(dp85
g3
I671
sg4
I0
sg5
I50936
sg6
I00
sg7
I0
sg8
S'rob.walls@enron.com'
p86
sg10
I540751
sg11
I0
sg12
I215
sg13
I0
sg14
I146
sg15
I2
sg16
I0
sg17
I850000
sg18
I5898997
sg19
I17
sg20
I0
sg21
I1552453
sg22
I357091
sg23
I1798780
sg24
I4346544
sg25
F0.0
sg26
F0.11643835616438356
ssS'KITCHEN LOUISE'
p87
(dp88
g3
I8305
sg4
I0
sg5
I5774
sg6
I00
sg7
I0
sg8
S'louise.kitchen@enron.com'
p89
sg10
I0
sg11
I0
sg12
I3669
sg13
I0
sg14
I1728
sg15
I93925
sg16
I0
sg17
I3100000
sg18
I547143
sg19
I251
sg20
I194
sg21
I466101
sg22
I271442
sg23
I3471141
sg24
I81042
sg25
F0.023359422034918725
sg26
F0.14525462962962962
ssS'CHAN RONNIE'
p90
(dp91
g3
I0
sg4
I0
sg5
I0
sg6
I00
sg7
I-98784
sg8
I0
sg10
I0
sg11
I-32460
sg12
I0
sg13
I0
sg14
I0
sg15
I0
sg16
I98784
sg17
I0
sg18
I0
sg19
I0
sg20
I0
sg21
I32460
sg22
I0
sg23
I0
sg24
I0
sg25
F0.3
sg26
F0.3
ssS'BELFER ROBERT'
p92
(dp93
g3
I0
sg4
I-102500
sg5
I0
sg6
I00
sg7
I0
sg8
I0
sg10
I0
sg11
I44093
sg12
I0
sg13
I0
sg14
I0
sg15
I0
sg16
I3285
sg17
I0
sg18
I-44093
sg19
I0
sg20
I0
sg21
I0
sg22
I0
sg23
I102500
sg24
I3285
sg25
F0.3
sg26
F0.3
ssS'SHANKMAN JEFFREY A'
p94
(dp95
g3
I3221
sg4
I0
sg5
I178979
sg6
I00
sg7
I0
sg8
S'jeffrey.shankman@enron.com'
p96
sg10
I554422
sg11
I0
sg12
I1730
sg13
I0
sg14
I2681
sg15
I1191
sg16
I0
sg17
I2000000
sg18
I2072035
sg19
I94
sg20
I83
sg21
I630137
sg22
I304110
sg23
I3038702
sg24
I1441898
sg25
F0.025768394908413535
sg26
F0.0350615441999254
ssS'WODRASKA JOHN'
p97
(dp98
g3
I0
sg4
I0
sg5
I0
sg6
I00
sg7
I0
sg8
S'john.wodraska@enron.com'
p99
sg10
I0
sg11
I0
sg12
I0
sg13
I0
sg14
I0
sg15
I189583
sg16
I0
sg17
I0
sg18
I0
sg19
I0
sg20
I0
sg21
I0
sg22
I0
sg23
I189583
sg24
I0
sg25
F0.3
sg26
F0.3
ssS'BERGSIEKER RICHARD P'
p100
(dp101
g3
I383
sg4
I0
sg5
I59175
sg6
I00
sg7
I-485813
sg8
S'rick.bergsieker@enron.com'
p102
sg10
I180250
sg11
I0
sg12
I233
sg13
I0
sg14
I59
sg15
I427316
sg16
I0
sg17
I250000
sg18
I659249
sg19
I4
sg20
I0
sg21
I659249
sg22
I187922
sg23
I618850
sg24
I0
sg25
F0.0
sg26
F0.06779661016949153
ssS'URQUHART JOHN A'
p103
(dp104
g3
I0
sg4
I0
sg5
I228656
sg6
I00
sg7
I-36666
sg8
I0
sg10
I0
sg11
I0
sg12
I0
sg13
I0
sg14
I0
sg15
I0
sg16
I36666
sg17
I0
sg18
I0
sg19
I0
sg20
I0
sg21
I0
sg22
I0
sg23
I228656
sg24
I0
sg25
F0.3
sg26
F0.3
ssS'BIBI PHILIPPE A'
p105
(dp106
g3
I1607
sg4
I0
sg5
I38559
sg6
I00
sg7
I0
sg8
S'philippe.bibi@enron.com'
p107
sg10
I369721
sg11
I0
sg12
I1336
sg13
I0
sg14
I40
sg15
I425688
sg16
I0
sg17
I1000000
sg18
I1843816
sg19
I23
sg20
I8
sg21
I378082
sg22
I213625
sg23
I2047593
sg24
I1465734
sg25
F0.004978220286247666
sg26
F0.575
ssS'RIEKER PAULA H'
p108
(dp109
g3
I1328
sg4
I214678
sg5
I33271
sg6
I01
sg7
I-100000
sg8
S'paula.rieker@enron.com'
p110
sg10
I0
sg11
I0
sg12
I1258
sg13
I0
sg14
I82
sg15
I1950
sg16
I0
sg17
I700000
sg18
I1918887
sg19
I35
sg20
I48
sg21
I283649
sg22
I249201
sg23
I1099100
sg24
I1635238
sg25
F0.03614457831325301
sg26
F0.4268292682926829
ssS'WHALEY DAVID A'
p111
(dp112
g3
I0
sg4
I0
sg5
I0
sg6
I00
sg7
I0
sg8
I0
sg10
I0
sg11
I0
sg12
I0
sg13
I0
sg14
I0
sg15
I0
sg16
I0
sg17
I0
sg18
I98718
sg19
I0
sg20
I0
sg21
I0
sg22
I0
sg23
I0
sg24
I98718
sg25
F0.3
sg26
F0.3
ssS'BECK SALLY W'
p113
(dp114
g3
I7315
sg4
I0
sg5
I37172
sg6
I00
sg7
I0
sg8
S'sally.beck@enron.com'
p115
sg10
I0
sg11
I0
sg12
I2639
sg13
I0
sg14
I4343
sg15
I566
sg16
I0
sg17
I700000
sg18
I126027
sg19
I144
sg20
I386
sg21
I126027
sg22
I231330
sg23
I969068
sg24
I0
sg25
F0.052768284347231714
sg26
F0.033156804052498275
ssS'HAUG DAVID L'
p116
(dp117
g3
I573
sg4
I0
sg5
I475
sg6
I00
sg7
I0
sg8
S'david.haug@enron.com'
p118
sg10
I0
sg11
I0
sg12
I471
sg13
I0
sg14
I19
sg15
I0
sg16
I0
sg17
I0
sg18
I2217299
sg19
I4
sg20
I7
sg21
I2217299
sg22
I0
sg23
I475
sg24
I0
sg25
F0.012216404886561954
sg26
F0.21052631578947367
ssS'ECHOLS JOHN B'
p119
(dp120
g3
I0
sg4
I0
sg5
I21530
sg6
I00
sg7
I0
sg8
S'john.echols@enron.com'
p121
sg10
I2234774
sg11
I0
sg12
I0
sg13
I0
sg14
I0
sg15
I53775
sg16
I0
sg17
I200000
sg18
I1008941
sg19
I0
sg20
I0
sg21
I407503
sg22
I182245
sg23
I2692324
sg24
I601438
sg25
F0.3
sg26
F0.3
ssS'MENDELSOHN JOHN'
p122
(dp123
g3
I0
sg4
I0
sg5
I148
sg6
I00
sg7
I-103750
sg8
I0
sg10
I0
sg11
I0
sg12
I0
sg13
I0
sg14
I0
sg15
I0
sg16
I103750
sg17
I0
sg18
I0
sg19
I0
sg20
I0
sg21
I0
sg22
I0
sg23
I148
sg24
I0
sg25
F0.3
sg26
F0.3
ssS'HICKERSON GARY J'
p124
(dp125
g3
I1320
sg4
I0
sg5
I98849
sg6
I00
sg7
I0
sg8
S'gary.hickerson@enron.com'
p126
sg10
I69223
sg11
I0
sg12
I900
sg13
I0
sg14
I27
sg15
I1936
sg16
I0
sg17
I1700000
sg18
I441096
sg19
I40
sg20
I1
sg21
I441096
sg22
I211788
sg23
I2081796
sg24
I0
sg25
F0.0007575757575757576
sg26
F1.4814814814814814
ssS'CLINE KENNETH W'
p127
(dp128
g3
I0
sg4
I0
sg5
I0
sg6
I00
sg7
I0
sg8
I0
sg10
I0
sg11
I-472568
sg12
I0
sg13
I0
sg14
I0
sg15
I0
sg16
I0
sg17
I0
sg18
I189518
sg19
I0
sg20
I0
sg21
I662086
sg22
I0
sg23
I0
sg24
I0
sg25
F0.3
sg26
F0.3
ssS'LEWIS RICHARD'
p129
(dp130
g3
I952
sg4
I0
sg5
I0
sg6
I00
sg7
I0
sg8
S'richard.lewis@enron.com'
p131
sg10
I0
sg11
I0
sg12
I739
sg13
I0
sg14
I26
sg15
I0
sg16
I0
sg17
I0
sg18
I850477
sg19
I10
sg20
I0
sg21
I0
sg22
I0
sg23
I0
sg24
I850477
sg25
F0.0
sg26
F0.38461538461538464
ssS'HAYES ROBERT E'
p132
(dp133
g3
I504
sg4
I7961
sg5
I0
sg6
I00
sg7
I0
sg8
S'robert.hayes@enron.com'
p134
sg10
I0
sg11
I0
sg12
I50
sg13
I0
sg14
I12
sg15
I0
sg16
I0
sg17
I0
sg18
I151418
sg19
I16
sg20
I0
sg21
I151418
sg22
I0
sg23
I7961
sg24
I0
sg25
F0.0
sg26
F1.3333333333333333
ssS'MCCARTY DANNY J'
p135
(dp136
g3
I1433
sg4
I0
sg5
I0
sg6
I00
sg7
I0
sg8
S'danny.mccarty@enron.com'
p137
sg10
I0
sg11
I0
sg12
I508
sg13
I0
sg14
I215
sg15
I0
sg16
I0
sg17
I0
sg18
I758931
sg19
I25
sg20
I2
sg21
I94556
sg22
I0
sg23
I0
sg24
I664375
sg25
F0.0013956734124214933
sg26
F0.11627906976744186
ssS'KOPPER MICHAEL J'
p138
(dp139
g3
I0
sg4
I0
sg5
I118134
sg6
I01
sg7
I0
sg8
S'michael.kopper@enron.com'
p140
sg10
I602671
sg11
I0
sg12
I0
sg13
I0
sg14
I0
sg15
I907502
sg16
I0
sg17
I800000
sg18
I985032
sg19
I0
sg20
I0
sg21
I985032
sg22
I224305
sg23
I2652612
sg24
I0
sg25
F0.3
sg26
F0.3
ssS'LEFF DANIEL P'
p141
(dp142
g3
I2822
sg4
I0
sg5
I0
sg6
I00
sg7
I0
sg8
S'dan.leff@enron.com'
p143
sg10
I1387399
sg11
I0
sg12
I2672
sg13
I0
sg14
I63
sg15
I3083
sg16
I0
sg17
I1000000
sg18
I360528
sg19
I67
sg20
I14
sg21
I360528
sg22
I273746
sg23
I2664228
sg24
I0
sg25
F0.004961020552799433
sg26
F1.0634920634920635
ssS'LAVORATO JOHN J'
p144
(dp145
g3
I7259
sg4
I0
sg5
I49537
sg6
I00
sg7
I0
sg8
S'john.lavorato@enron.com'
p146
sg10
I2035380
sg11
I0
sg12
I3962
sg13
I0
sg14
I2585
sg15
I1552
sg16
I0
sg17
I8000000
sg18
I5167144
sg19
I528
sg20
I411
sg21
I1008149
sg22
I339288
sg23
I10425757
sg24
I4158995
sg25
F0.05661936905909905
sg26
F0.20425531914893616
ssS'BERBERIAN DAVID'
p147
(dp148
g3
I0
sg4
I0
sg5
I11892
sg6
I00
sg7
I0
sg8
S'david.berberian@enron.com'
p149
sg10
I0
sg11
I0
sg12
I0
sg13
I0
sg14
I0
sg15
I0
sg16
I0
sg17
I0
sg18
I2493616
sg19
I0
sg20
I0
sg21
I869220
sg22
I216582
sg23
I228474
sg24
I1624396
sg25
F0.3
sg26
F0.3
ssS'DETMERING TIMOTHY J'
p150
(dp151
g3
I0
sg4
I875307
sg5
I52255
sg6
I00
sg7
I-775241
sg8
S'timothy.detmering@enron.com'
p152
sg10
I415657
sg11
I-315068
sg12
I0
sg13
I0
sg14
I0
sg15
I1105
sg16
I0
sg17
I425000
sg18
I2027865
sg19
I0
sg20
I0
sg21
I315068
sg22
I210500
sg23
I1204583
sg24
I2027865
sg25
F0.3
sg26
F0.3
ssS'WAKEHAM JOHN'
p153
(dp154
g3
I0
sg4
I0
sg5
I103773
sg6
I00
sg7
I0
sg8
I0
sg10
I0
sg11
I0
sg12
I0
sg13
I0
sg14
I0
sg15
I0
sg16
I109298
sg17
I0
sg18
I0
sg19
I0
sg20
I0
sg21
I0
sg22
I0
sg23
I213071
sg24
I0
sg25
F0.3
sg26
F0.3
ssS'POWERS WILLIAM'
p155
(dp156
g3
I653
sg4
I0
sg5
I0
sg6
I00
sg7
I-17500
sg8
S'ken.powers@enron.com'
p157
sg10
I0
sg11
I0
sg12
I12
sg13
I0
sg14
I26
sg15
I0
sg16
I17500
sg17
I0
sg18
I0
sg19
I0
sg20
I0
sg21
I0
sg22
I0
sg23
I0
sg24
I0
sg25
F0.0
sg26
F0.0
ssS'GOLD JOSEPH'
p158
(dp159
g3
I0
sg4
I0
sg5
I0
sg6
I00
sg7
I0
sg8
S'joe.gold@enron.com'
p160
sg10
I304805
sg11
I0
sg12
I0
sg13
I0
sg14
I0
sg15
I819288
sg16
I0
sg17
I750000
sg18
I877611
sg19
I0
sg20
I0
sg21
I441096
sg22
I272880
sg23
I2146973
sg24
I436515
sg25
F0.3
sg26
F0.3
ssS'BANNANTINE JAMES M'
p161
(dp162
g3
I566
sg4
I0
sg5
I56301
sg6
I00
sg7
I-5104
sg8
S'james.bannantine@enron.com'
p163
sg10
I0
sg11
I-560222
sg12
I465
sg13
I0
sg14
I29
sg15
I864523
sg16
I0
sg17
I0
sg18
I5243487
sg19
I39
sg20
I0
sg21
I1757552
sg22
I477
sg23
I916197
sg24
I4046157
sg25
F0.0
sg26
F1.3448275862068966
ssS'DUNCAN JOHN H'
p164
(dp165
g3
I0
sg4
I0
sg5
I0
sg6
I00
sg7
I-25000
sg8
I0
sg10
I0
sg11
I0
sg12
I0
sg13
I0
sg14
I0
sg15
I0
sg16
I102492
sg17
I0
sg18
I371750
sg19
I0
sg20
I0
sg21
I0
sg22
I0
sg23
I77492
sg24
I371750
sg25
F0.3
sg26
F0.3
ssS'SHAPIRO RICHARD S'
p166
(dp167
g3
I15149
sg4
I0
sg5
I137767
sg6
I00
sg7
I0
sg8
S'richard.shapiro@enron.com'
p168
sg10
I0
sg11
I0
sg12
I4527
sg13
I0
sg14
I1215
sg15
I705
sg16
I0
sg17
I650000
sg18
I987001
sg19
I74
sg20
I65
sg21
I379164
sg22
I269076
sg23
I1057548
sg24
I607837
sg25
F0.004290712258234867
sg26
F0.060905349794238686
ssS'SHERRIFF JOHN R'
p169
(dp170
g3
I3187
sg4
I0
sg5
I0
sg6
I00
sg7
I0
sg8
S'john.sherriff@enron.com'
p171
sg10
I554422
sg11
I0
sg12
I2103
sg13
I0
sg14
I92
sg15
I1852186
sg16
I0
sg17
I1500000
sg18
I3128982
sg19
I28
sg20
I23
sg21
I1293424
sg22
I428780
sg23
I4335388
sg24
I1835558
sg25
F0.0072168183244430495
sg26
F0.30434782608695654
ssS'SHELBY REX'
p172
(dp173
g3
I225
sg4
I0
sg5
I22884
sg6
I01
sg7
I-4167
sg8
S'rex.shelby@enron.com'
p174
sg10
I0
sg11
I0
sg12
I91
sg13
I0
sg14
I39
sg15
I1573324
sg16
I0
sg17
I200000
sg18
I2493616
sg19
I13
sg20
I14
sg21
I869220
sg22
I211844
sg23
I2003885
sg24
I1624396
sg25
F0.06222222222222222
sg26
F0.3333333333333333
ssS'LEMAISTRE CHARLES'
p175
(dp176
g3
I0
sg4
I0
sg5
I0
sg6
I00
sg7
I-25000
sg8
I0
sg10
I0
sg11
I0
sg12
I0
sg13
I0
sg14
I0
sg15
I0
sg16
I112492
sg17
I0
sg18
I412878
sg19
I0
sg20
I0
sg21
I0
sg22
I0
sg23
I87492
sg24
I412878
sg25
F0.3
sg26
F0.3
ssS'DEFFNER JOSEPH M'
p177
(dp178
g3
I714
sg4
I0
sg5
I41626
sg6
I00
sg7
I0
sg8
S'joseph.deffner@enron.com'
p179
sg10
I335349
sg11
I0
sg12
I552
sg13
I0
sg14
I74
sg15
I25553
sg16
I0
sg17
I600000
sg18
I159211
sg19
I115
sg20
I4
sg21
I141833
sg22
I206121
sg23
I1208649
sg24
I17378
sg25
F0.0056022408963585435
sg26
F1.554054054054054
ssS'KISHKILL JOSEPH G'
p180
(dp181
g3
I0
sg4
I0
sg5
I116335
sg6
I00
sg7
I-51042
sg8
S'joe.kishkill@enron.com'
p182
sg10
I0
sg11
I0
sg12
I0
sg13
I0
sg14
I0
sg15
I465357
sg16
I0
sg17
I0
sg18
I1034346
sg19
I0
sg20
I0
sg21
I1034346
sg22
I174246
sg23
I704896
sg24
I0
sg25
F0.3
sg26
F0.3
ssS'WHALLEY LAWRENCE G'
p183
(dp184
g3
I6019
sg4
I0
sg5
I57838
sg6
I00
sg7
I0
sg8
S'greg.whalley@enron.com'
p185
sg10
I808346
sg11
I0
sg12
I3920
sg13
I0
sg14
I556
sg15
I301026
sg16
I0
sg17
I3000000
sg18
I6079137
sg19
I186
sg20
I24
sg21
I2796177
sg22
I510364
sg23
I4677574
sg24
I3282960
sg25
F0.003987373317826882
sg26
F0.3345323741007194
ssS'MCCONNELL MICHAEL S'
p186
(dp187
g3
I3329
sg4
I0
sg5
I81364
sg6
I00
sg7
I0
sg8
S'mike.mcconnell@enron.com'
p188
sg10
I554422
sg11
I0
sg12
I2189
sg13
I0
sg14
I2742
sg15
I540
sg16
I0
sg17
I1100000
sg18
I3101279
sg19
I92
sg20
I194
sg21
I1478269
sg22
I365038
sg23
I2101364
sg24
I1623010
sg25
F0.058275758486031844
sg26
F0.03355215171407731
ssS'PIRO JIM'
p189
(dp190
g3
I58
sg4
I0
sg5
I0
sg6
I00
sg7
I0
sg8
S'jim.piro@enron.com'
p191
sg10
I0
sg11
I0
sg12
I3
sg13
I0
sg14
I16
sg15
I0
sg16
I0
sg17
I0
sg18
I47304
sg19
I0
sg20
I1
sg21
I47304
sg22
I0
sg23
I0
sg24
I0
sg25
F0.017241379310344827
sg26
F0.0
ssS'DELAINEY DAVID W'
p192
(dp193
g3
I3093
sg4
I0
sg5
I86174
sg6
I01
sg7
I0
sg8
S'david.delainey@enron.com'
p194
sg10
I1294981
sg11
I0
sg12
I2097
sg13
I0
sg14
I3069
sg15
I1661
sg16
I0
sg17
I3000000
sg18
I3614261
sg19
I66
sg20
I609
sg21
I1323148
sg22
I365163
sg23
I4747979
sg24
I2291113
sg25
F0.19689621726479145
sg26
F0.021505376344086023
ssS'SULLIVAN-SHAKLOVITZ COLLEEN'
p195
(dp196
g3
I0
sg4
I181993
sg5
I0
sg6
I00
sg7
I0
sg8
I0
sg10
I554422
sg11
I0
sg12
I0
sg13
I0
sg14
I0
sg15
I162
sg16
I0
sg17
I100000
sg18
I1362375
sg19
I0
sg20
I0
sg21
I0
sg22
I162779
sg23
I999356
sg24
I1362375
sg25
F0.3
sg26
F0.3
ssS'WROBEL BRUCE'
p197
(dp198
g3
I0
sg4
I0
sg5
I0
sg6
I00
sg7
I0
sg8
I0
sg10
I0
sg11
I0
sg12
I0
sg13
I0
sg14
I0
sg15
I0
sg16
I0
sg17
I0
sg18
I139130
sg19
I0
sg20
I0
sg21
I0
sg22
I0
sg23
I0
sg24
I139130
sg25
F0.3
sg26
F0.3
ssS'LINDHOLM TOD A'
p199
(dp200
g3
I0
sg4
I204075
sg5
I57727
sg6
I00
sg7
I0
sg8
S'tod.lindholm@enron.com'
p201
sg10
I175000
sg11
I0
sg12
I0
sg13
I0
sg14
I0
sg15
I2630
sg16
I0
sg17
I200000
sg18
I3064208
sg19
I0
sg20
I0
sg21
I514847
sg22
I236457
sg23
I875889
sg24
I2549361
sg25
F0.3
sg26
F0.3
ssS'MEYER JEROME J'
p202
(dp203
g3
I0
sg4
I0
sg5
I2151
sg6
I00
sg7
I-38346
sg8
I0
sg10
I0
sg11
I0
sg12
I0
sg13
I0
sg14
I0
sg15
I0
sg16
I38346
sg17
I0
sg18
I0
sg19
I0
sg20
I0
sg21
I0
sg22
I0
sg23
I2151
sg24
I0
sg25
F0.3
sg26
F0.3
ssS'LAY KENNETH L'
p204
(dp205
g3
I4273
sg4
I202911
sg5
I99832
sg6
I01
sg7
I-300000
sg8
S'kenneth.lay@enron.com'
p206
sg10
I3600000
sg11
I0
sg12
I2411
sg13
I81525000
sg14
I36
sg15
I10359729
sg16
I0
sg17
I7000000
sg18
I49110078
sg19
I123
sg20
I16
sg21
I14761694
sg22
I1072321
sg23
I103559793
sg24
I34348384
sg25
F0.003744441844137608
sg26
F3.4166666666666665
ssS'BUTTS ROBERT H'
p207
(dp208
g3
I0
sg4
I0
sg5
I9410
sg6
I00
sg7
I-75000
sg8
S'bob.butts@enron.com'
p209
sg10
I175000
sg11
I0
sg12
I0
sg13
I0
sg14
I0
sg15
I150656
sg16
I0
sg17
I750000
sg18
I417619
sg19
I0
sg20
I0
sg21
I417619
sg22
I261516
sg23
I1271582
sg24
I0
sg25
F0.3
sg26
F0.3
ssS'OLSON CINDY K'
p210
(dp211
g3
I1184
sg4
I77716
sg5
I63791
sg6
I00
sg7
I0
sg8
S'cindy.olson@enron.com'
p212
sg10
I100000
sg11
I0
sg12
I856
sg13
I0
sg14
I52
sg15
I972
sg16
I0
sg17
I750000
sg18
I2606763
sg19
I20
sg20
I15
sg21
I969729
sg22
I329078
sg23
I1321557
sg24
I1637034
sg25
F0.01266891891891892
sg26
F0.38461538461538464
ssS'MCDONALD REBECCA'
p213
(dp214
g3
I894
sg4
I0
sg5
I0
sg6
I00
sg7
I0
sg8
S'rebecca.mcdonald@enron.com'
p215
sg10
I0
sg11
I0
sg12
I720
sg13
I0
sg14
I13
sg15
I0
sg16
I0
sg17
I0
sg18
I1691366
sg19
I54
sg20
I1
sg21
I934065
sg22
I0
sg23
I0
sg24
I757301
sg25
F0.0011185682326621924
sg26
F4.153846153846154
ssS'CUMBERLAND MICHAEL S'
p216
(dp217
g3
I0
sg4
I0
sg5
I22344
sg6
I00
sg7
I0
sg8
I0
sg10
I275000
sg11
I0
sg12
I0
sg13
I0
sg14
I0
sg15
I713
sg16
I0
sg17
I325000
sg18
I207940
sg19
I0
sg20
I0
sg21
I207940
sg22
I184899
sg23
I807956
sg24
I0
sg25
F0.3
sg26
F0.3
ssS'GAHN ROBERT S'
p218
(dp219
g3
I0
sg4
I73122
sg5
I50080
sg6
I00
sg7
I-1042
sg8
I0
sg10
I0
sg11
I0
sg12
I0
sg13
I0
sg14
I0
sg15
I76547
sg16
I0
sg17
I509870
sg18
I318607
sg19
I0
sg20
I0
sg21
I235370
sg22
I192008
sg23
I900585
sg24
I83237
sg25
F0.3
sg26
F0.3
ssS'MCCLELLAN GEORGE'
p220
(dp221
g3
I1744
sg4
I0
sg5
I228763
sg6
I00
sg7
I-125000
sg8
S'george.mcclellan@enron.com'
p222
sg10
I0
sg11
I0
sg12
I1469
sg13
I0
sg14
I49
sg15
I51587
sg16
I0
sg17
I900000
sg18
I947861
sg19
I52
sg20
I0
sg21
I441096
sg22
I263413
sg23
I1318763
sg24
I506765
sg25
F0.0
sg26
F1.0612244897959184
ssS'HERMANN ROBERT J'
p223
(dp224
g3
I0
sg4
I0
sg5
I48357
sg6
I00
sg7
I-280000
sg8
S'robert.hermann@enron.com'
p225
sg10
I150000
sg11
I0
sg12
I0
sg13
I0
sg14
I0
sg15
I416441
sg16
I0
sg17
I700000
sg18
I668132
sg19
I0
sg20
I0
sg21
I480632
sg22
I262663
sg23
I1297461
sg24
I187500
sg25
F0.3
sg26
F0.3
ssS'SCRIMSHAW MATTHEW'
p226
(dp227
g3
I0
sg4
I0
sg5
I0
sg6
I00
sg7
I0
sg8
S'matthew.scrimshaw@enron.com'
p228
sg10
I0
sg11
I0
sg12
I0
sg13
I0
sg14
I0
sg15
I0
sg16
I0
sg17
I0
sg18
I759557
sg19
I0
sg20
I0
sg21
I0
sg22
I0
sg23
I0
sg24
I759557
sg25
F0.3
sg26
F0.3
ssS'GATHMANN WILLIAM D'
p229
(dp230
g3
I0
sg4
I0
sg5
I0
sg6
I00
sg7
I0
sg8
I0
sg10
I0
sg11
I-72419
sg12
I0
sg13
I0
sg14
I0
sg15
I0
sg16
I0
sg17
I0
sg18
I1945360
sg19
I0
sg20
I0
sg21
I264013
sg22
I0
sg23
I0
sg24
I1753766
sg25
F0.3
sg26
F0.3
ssS'HAEDICKE MARK E'
p231
(dp232
g3
I4009
sg4
I2157527
sg5
I76169
sg6
I00
sg7
I-934484
sg8
S'mark.haedicke@enron.com'
p233
sg10
I983346
sg11
I-329825
sg12
I1847
sg13
I0
sg14
I1941
sg15
I52382
sg16
I0
sg17
I1150000
sg18
I803094
sg19
I180
sg20
I61
sg21
I524169
sg22
I374125
sg23
I3859065
sg24
I608750
sg25
F0.015215764529807932
sg26
F0.09273570324574962
ssS'BOWEN JR RAYMOND M'
p234
(dp235
g3
I1858
sg4
I0
sg5
I65907
sg6
I01
sg7
I-833
sg8
S'raymond.bowen@enron.com'
p236
sg10
I974293
sg11
I0
sg12
I1593
sg13
I0
sg14
I27
sg15
I1621
sg16
I0
sg17
I1350000
sg18
I252055
sg19
I140
sg20
I15
sg21
I252055
sg22
I278601
sg23
I2669589
sg24
I0
sg25
F0.008073196986006458
sg26
F5.185185185185185
ssS'GILLIS JOHN'
p237
(dp238
g3
I0
sg4
I0
sg5
I0
sg6
I00
sg7
I0
sg8
I0
sg10
I0
sg11
I0
sg12
I0
sg13
I0
sg14
I0
sg15
I0
sg16
I0
sg17
I0
sg18
I85641
sg19
I0
sg20
I0
sg21
I75838
sg22
I0
sg23
I0
sg24
I9803
sg25
F0.3
sg26
F0.3
ssS'FITZGERALD JAY L'
p239
(dp240
g3
I936
sg4
I0
sg5
I23870
sg6
I00
sg7
I0
sg8
S'jay.fitzgerald@enron.com'
p241
sg10
I556416
sg11
I0
sg12
I723
sg13
I0
sg14
I16
sg15
I285414
sg16
I0
sg17
I350000
sg18
I1621236
sg19
I1
sg20
I8
sg21
I956775
sg22
I199157
sg23
I1414857
sg24
I664461
sg25
F0.008547008547008548
sg26
F0.0625
ssS'MORAN MICHAEL P'
p242
(dp243
g3
I672
sg4
I0
sg5
I0
sg6
I00
sg7
I0
sg8
S'michael.moran@enron.com'
p244
sg10
I0
sg11
I0
sg12
I127
sg13
I0
sg14
I19
sg15
I0
sg16
I0
sg17
I0
sg18
I221141
sg19
I0
sg20
I0
sg21
I161602
sg22
I0
sg23
I0
sg24
I59539
sg25
F0.0
sg26
F0.0
ssS'REDMOND BRIAN L'
p245
(dp246
g3
I1671
sg4
I0
sg5
I14689
sg6
I00
sg7
I0
sg8
S'brian.redmond@enron.com'
p247
sg10
I0
sg11
I0
sg12
I1063
sg13
I0
sg14
I221
sg15
I0
sg16
I0
sg17
I0
sg18
I7890324
sg19
I204
sg20
I49
sg21
I381285
sg22
I96840
sg23
I111529
sg24
I7509039
sg25
F0.029323758228605626
sg26
F0.9230769230769231
ssS'BAZELIDES PHILIP J'
p248
(dp249
g3
I0
sg4
I684694
sg5
I0
sg6
I00
sg7
I0
sg8
I0
sg10
I93750
sg11
I0
sg12
I0
sg13
I0
sg14
I0
sg15
I874
sg16
I0
sg17
I0
sg18
I1599641
sg19
I0
sg20
I0
sg21
I0
sg22
I80818
sg23
I860136
sg24
I1599641
sg25
F0.3
sg26
F0.3
ssS'BELDEN TIMOTHY N'
p250
(dp251
g3
I7991
sg4
I2144013
sg5
I17355
sg6
I01
sg7
I-2334434
sg8
S'tim.belden@enron.com'
p252
sg10
I0
sg11
I0
sg12
I5521
sg13
I0
sg14
I484
sg15
I210698
sg16
I0
sg17
I5249999
sg18
I1110705
sg19
I228
sg20
I108
sg21
I157569
sg22
I213999
sg23
I5501630
sg24
I953136
sg25
F0.013515204605180828
sg26
F0.47107438016528924
ssS'DURAN WILLIAM D'
p253
(dp254
g3
I904
sg4
I0
sg5
I25785
sg6
I00
sg7
I0
sg8
S'w.duran@enron.com'
p255
sg10
I1105218
sg11
I0
sg12
I599
sg13
I0
sg14
I12
sg15
I1568
sg16
I0
sg17
I750000
sg18
I1640910
sg19
I106
sg20
I3
sg21
I189041
sg22
I210692
sg23
I2093263
sg24
I1451869
sg25
F0.00331858407079646
sg26
F8.833333333333334
ssS'THORN TERENCE H'
p256
(dp257
g3
I266
sg4
I16586
sg5
I46145
sg6
I00
sg7
I0
sg8
S'terence.thorn@enron.com'
p258
sg10
I200000
sg11
I0
sg12
I73
sg13
I0
sg14
I41
sg15
I426629
sg16
I0
sg17
I0
sg18
I4817796
sg19
I0
sg20
I0
sg21
I365320
sg22
I222093
sg23
I911453
sg24
I4452476
sg25
F0.0
sg26
F0.0
ssS'FASTOW ANDREW S'
p259
(dp260
g3
I0
sg4
I0
sg5
I55921
sg6
I01
sg7
I-1386055
sg8
S'andrew.fastow@enron.com'
p261
sg10
I1736055
sg11
I0
sg12
I0
sg13
I0
sg14
I0
sg15
I277464
sg16
I0
sg17
I1300000
sg18
I1794412
sg19
I0
sg20
I0
sg21
I1794412
sg22
I440698
sg23
I2424083
sg24
I0
sg25
F0.3
sg26
F0.3
ssS'FOY JOE'
p262
(dp263
g3
I57
sg4
I181755
sg5
I0
sg6
I00
sg7
I0
sg8
S'tracy.foy@enron.com'
p264
sg10
I0
sg11
I0
sg12
I2
sg13
I0
sg14
I13
sg15
I0
sg16
I0
sg17
I0
sg18
I343434
sg19
I0
sg20
I0
sg21
I0
sg22
I0
sg23
I181755
sg24
I343434
sg25
F0.0
sg26
F0.0
ssS'CALGER CHRISTOPHER F'
p265
(dp266
g3
I2598
sg4
I0
sg5
I35818
sg6
I01
sg7
I-262500
sg8
S'christopher.calger@enron.com'
p267
sg10
I375304
sg11
I0
sg12
I2188
sg13
I0
sg14
I144
sg15
I486
sg16
I0
sg17
I1250000
sg18
I126027
sg19
I199
sg20
I25
sg21
I126027
sg22
I240189
sg23
I1639297
sg24
I0
sg25
F0.00962278675904542
sg26
F1.3819444444444444
ssS'RICE KENNETH D'
p268
(dp269
g3
I905
sg4
I0
sg5
I46950
sg6
I01
sg7
I-3504386
sg8
S'ken.rice@enron.com'
p270
sg10
I1617011
sg11
I0
sg12
I864
sg13
I0
sg14
I18
sg15
I174839
sg16
I0
sg17
I1750000
sg18
I22542539
sg19
I42
sg20
I4
sg21
I2748364
sg22
I420636
sg23
I505050
sg24
I19794175
sg25
F0.004419889502762431
sg26
F2.3333333333333335
ssS'KAMINSKI WINCENTY J'
p271
(dp272
g3
I4607
sg4
I0
sg5
I83585
sg6
I00
sg7
I0
sg8
S'vince.kaminski@enron.com'
p273
sg10
I323466
sg11
I0
sg12
I583
sg13
I0
sg14
I14368
sg15
I4669
sg16
I0
sg17
I400000
sg18
I976037
sg19
I41
sg20
I171
sg21
I126027
sg22
I275101
sg23
I1086821
sg24
I850010
sg25
F0.03711742999782939
sg26
F0.002853563474387528
ssS'COX DAVID'
p274
(dp275
g3
I102
sg4
I0
sg5
I27861
sg6
I00
sg7
I-41250
sg8
S'chip.cox@enron.com'
p276
sg10
I0
sg11
I0
sg12
I71
sg13
I0
sg14
I33
sg15
I494
sg16
I0
sg17
I800000
sg18
I495633
sg19
I0
sg20
I4
sg21
I378082
sg22
I314288
sg23
I1101393
sg24
I117551
sg25
F0.0392156862745098
sg26
F0.0
ssS'OVERDYKE JR JERE C'
p277
(dp278
g3
I0
sg4
I0
sg5
I18834
sg6
I00
sg7
I0
sg8
S'jere.overdyke@enron.com'
p279
sg10
I135836
sg11
I0
sg12
I0
sg13
I0
sg14
I0
sg15
I176
sg16
I0
sg17
I0
sg18
I7307594
sg19
I0
sg20
I0
sg21
I2041016
sg22
I94941
sg23
I249787
sg24
I5266578
sg25
F0.3
sg26
F0.3
ssS'PEREIRA PAULO V. FERRAZ'
p280
(dp281
g3
I0
sg4
I0
sg5
I27942
sg6
I00
sg7
I-101250
sg8
I0
sg10
I0
sg11
I0
sg12
I0
sg13
I0
sg14
I0
sg15
I0
sg16
I101250
sg17
I0
sg18
I0
sg19
I0
sg20
I0
sg21
I0
sg22
I0
sg23
I27942
sg24
I0
sg25
F0.3
sg26
F0.3
ssS'STABLER FRANK'
p282
(dp283
g3
I0
sg4
I0
sg5
I16514
sg6
I00
sg7
I0
sg8
S'frank.stabler@enron.com'
p284
sg10
I0
sg11
I0
sg12
I0
sg13
I0
sg14
I0
sg15
I356071
sg16
I0
sg17
I500000
sg18
I511734
sg19
I0
sg20
I0
sg21
I511734
sg22
I239502
sg23
I1112087
sg24
I0
sg25
F0.3
sg26
F0.3
ssS'SKILLING JEFFREY K'
p285
(dp286
g3
I3627
sg4
I0
sg5
I29336
sg6
I01
sg7
I0
sg8
S'jeff.skilling@enron.com'
p287
sg10
I1920000
sg11
I0
sg12
I2042
sg13
I0
sg14
I108
sg15
I22122
sg16
I0
sg17
I5600000
sg18
I26093672
sg19
I88
sg20
I30
sg21
I6843672
sg22
I1111258
sg23
I8682716
sg24
I19250000
sg25
F0.008271298593879239
sg26
F0.8148148148148148
ssS'BLAKE JR. NORMAN P'
p288
(dp289
g3
I0
sg4
I0
sg5
I1279
sg6
I00
sg7
I-113784
sg8
I0
sg10
I0
sg11
I0
sg12
I0
sg13
I0
sg14
I0
sg15
I0
sg16
I113784
sg17
I0
sg18
I0
sg19
I0
sg20
I0
sg21
I0
sg22
I0
sg23
I1279
sg24
I0
sg25
F0.3
sg26
F0.3
ssS'SHERRICK JEFFREY B'
p290
(dp291
g3
I613
sg4
I0
sg5
I0
sg6
I00
sg7
I0
sg8
S'jeffrey.sherrick@enron.com'
p292
sg10
I0
sg11
I0
sg12
I583
sg13
I0
sg14
I25
sg15
I0
sg16
I0
sg17
I0
sg18
I1832468
sg19
I39
sg20
I18
sg21
I405999
sg22
I0
sg23
I0
sg24
I1426469
sg25
F0.02936378466557912
sg26
F1.56
ssS'PRENTICE JAMES'
p293
(dp294
g3
I0
sg4
I564348
sg5
I0
sg6
I00
sg7
I0
sg8
S'james.prentice@enron.com'
p295
sg10
I0
sg11
I0
sg12
I0
sg13
I0
sg14
I0
sg15
I0
sg16
I0
sg17
I0
sg18
I1095040
sg19
I0
sg20
I0
sg21
I208809
sg22
I0
sg23
I564348
sg24
I886231
sg25
F0.3
sg26
F0.3
ssS'GRAY RODNEY'
p296
(dp297
g3
I0
sg4
I93585
sg5
I0
sg6
I00
sg7
I0
sg8
I0
sg10
I365625
sg11
I0
sg12
I0
sg13
I0
sg14
I0
sg15
I680833
sg16
I0
sg17
I0
sg18
I0
sg19
I0
sg20
I0
sg21
I0
sg22
I6615
sg23
I1146658
sg24
I0
sg25
F0.3
sg26
F0.3
ssS'PICKERING MARK R'
p298
(dp299
g3
I898
sg4
I0
sg5
I31653
sg6
I00
sg7
I0
sg8
S'mark.pickering@enron.com'
p300
sg10
I0
sg11
I0
sg12
I728
sg13
I400000
sg14
I67
sg15
I0
sg16
I0
sg17
I300000
sg18
I28798
sg19
I7
sg20
I0
sg21
I0
sg22
I655037
sg23
I1386690
sg24
I28798
sg25
F0.0
sg26
F0.1044776119402985
ssS'NOLES JAMES L'
p301
(dp302
g3
I0
sg4
I774401
sg5
I0
sg6
I00
sg7
I0
sg8
I0
sg10
I0
sg11
I-94556
sg12
I0
sg13
I0
sg14
I0
sg15
I0
sg16
I0
sg17
I0
sg18
I368705
sg19
I0
sg20
I0
sg21
I463261
sg22
I0
sg23
I774401
sg24
I0
sg25
F0.3
sg26
F0.3
ssS'KEAN STEVEN J'
p303
(dp304
g3
I12754
sg4
I0
sg5
I41953
sg6
I00
sg7
I0
sg8
S'steven.kean@enron.com'
p305
sg10
I300000
sg11
I0
sg12
I3639
sg13
I0
sg14
I6759
sg15
I1231
sg16
I0
sg17
I1000000
sg18
I6153642
sg19
I140
sg20
I387
sg21
I4131594
sg22
I404338
sg23
I1747522
sg24
I2022048
sg25
F0.03034342167163243
sg26
F0.020713123243083296
ssS'FOWLER PEGGY'
p306
(dp307
g3
I517
sg4
I0
sg5
I0
sg6
I00
sg7
I0
sg8
S'kulvinder.fowler@enron.com'
p308
sg10
I0
sg11
I0
sg12
I10
sg13
I0
sg14
I36
sg15
I0
sg16
I0
sg17
I0
sg18
I1884748
sg19
I0
sg20
I0
sg21
I560170
sg22
I0
sg23
I0
sg24
I1324578
sg25
F0.0
sg26
F0.0
ssS'WASAFF GEORGE'
p309
(dp310
g3
I400
sg4
I831299
sg5
I0
sg6
I00
sg7
I-583325
sg8
S'george.wasaff@enron.com'
p311
sg10
I200000
sg11
I0
sg12
I337
sg13
I0
sg14
I30
sg15
I1425
sg16
I0
sg17
I325000
sg18
I2056427
sg19
I22
sg20
I7
sg21
I388167
sg22
I259996
sg23
I1034395
sg24
I1668260
sg25
F0.0175
sg26
F0.7333333333333333
ssS'WHITE JR THOMAS E'
p312
(dp313
g3
I0
sg4
I0
sg5
I81353
sg6
I00
sg7
I0
sg8
S'thomas.white@enron.com'
p314
sg10
I0
sg11
I0
sg12
I0
sg13
I0
sg14
I0
sg15
I1085463
sg16
I0
sg17
I450000
sg18
I15144123
sg19
I0
sg20
I0
sg21
I13847074
sg22
I317543
sg23
I1934359
sg24
I1297049
sg25
F0.3
sg26
F0.3
ssS'CHRISTODOULOU DIOMEDES'
p315
(dp316
g3
I0
sg4
I0
sg5
I0
sg6
I00
sg7
I0
sg8
S'diomedes.christodoulou@enron.com'
p317
sg10
I0
sg11
I0
sg12
I0
sg13
I0
sg14
I0
sg15
I0
sg16
I0
sg17
I0
sg18
I6077885
sg19
I0
sg20
I0
sg21
I950730
sg22
I0
sg23
I0
sg24
I5127155
sg25
F0.3
sg26
F0.3
ssS'ALLEN PHILLIP K'
p318
(dp319
g3
I2902
sg4
I2869717
sg5
I13868
sg6
I00
sg7
I-3081055
sg8
S'phillip.allen@enron.com'
p320
sg10
I304805
sg11
I-126027
sg12
I1407
sg13
I0
sg14
I2195
sg15
I152
sg16
I0
sg17
I4175000
sg18
I1729541
sg19
I47
sg20
I65
sg21
I126027
sg22
I201955
sg23
I4484442
sg24
I1729541
sg25
F0.022398345968297727
sg26
F0.0214123006833713
ssS'SHARP VICTORIA T'
p321
(dp322
g3
I3136
sg4
I187469
sg5
I116337
sg6
I00
sg7
I0
sg8
S'vicki.sharp@enron.com'
p323
sg10
I422158
sg11
I0
sg12
I2477
sg13
I0
sg14
I136
sg15
I2401
sg16
I0
sg17
I600000
sg18
I494136
sg19
I24
sg20
I6
sg21
I213063
sg22
I248146
sg23
I1576511
sg24
I281073
sg25
F0.001913265306122449
sg26
F0.17647058823529413
ssS'JAEDICKE ROBERT'
p324
(dp325
g3
I0
sg4
I0
sg5
I0
sg6
I00
sg7
I-25000
sg8
I0
sg10
I0
sg11
I-44093
sg12
I0
sg13
I0
sg14
I0
sg15
I0
sg16
I108750
sg17
I0
sg18
I431750
sg19
I0
sg20
I0
sg21
I44093
sg22
I0
sg23
I83750
sg24
I431750
sg25
F0.3
sg26
F0.3
ssS'WINOKUR JR. HERBERT S'
p326
(dp327
g3
I0
sg4
I0
sg5
I1413
sg6
I00
sg7
I-25000
sg8
I0
sg10
I0
sg11
I0
sg12
I0
sg13
I0
sg14
I0
sg15
I0
sg16
I108579
sg17
I0
sg18
I0
sg19
I0
sg20
I0
sg21
I0
sg22
I0
sg23
I84992
sg24
I0
sg25
F0.3
sg26
F0.3
ssS'BROWN MICHAEL'
p328
(dp329
g3
I1486
sg4
I0
sg5
I49288
sg6
I00
sg7
I0
sg8
S'michael.brown@enron.com'
p330
sg10
I0
sg11
I0
sg12
I761
sg13
I0
sg14
I41
sg15
I0
sg16
I0
sg17
I0
sg18
I0
sg19
I13
sg20
I1
sg21
I0
sg22
I0
sg23
I49288
sg24
I0
sg25
F0.0006729475100942127
sg26
F0.3170731707317073
ssS'BADUM JAMES P'
p331
(dp332
g3
I0
sg4
I178980
sg5
I3486
sg6
I00
sg7
I0
sg8
I0
sg10
I0
sg11
I0
sg12
I0
sg13
I0
sg14
I0
sg15
I0
sg16
I0
sg17
I0
sg18
I257817
sg19
I0
sg20
I0
sg21
I0
sg22
I0
sg23
I182466
sg24
I257817
sg25
F0.3
sg26
F0.3
ssS'HUGHES JAMES A'
p333
(dp334
g3
I719
sg4
I0
sg5
I0
sg6
I00
sg7
I0
sg8
S'james.hughes@enron.com'
p335
sg10
I0
sg11
I0
sg12
I589
sg13
I0
sg14
I34
sg15
I0
sg16
I0
sg17
I0
sg18
I1118394
sg19
I35
sg20
I5
sg21
I363428
sg22
I0
sg23
I0
sg24
I754966
sg25
F0.006954102920723227
sg26
F1.0294117647058822
ssS'REYNOLDS LAWRENCE'
p336
(dp337
g3
I0
sg4
I51365
sg5
I8409
sg6
I00
sg7
I-200000
sg8
I0
sg10
I156250
sg11
I-140264
sg12
I0
sg13
I0
sg14
I0
sg15
I202052
sg16
I0
sg17
I100000
sg18
I4221891
sg19
I0
sg20
I0
sg21
I201483
sg22
I76399
sg23
I394475
sg24
I4160672
sg25
F0.3
sg26
F0.3
ssS'DIMICHELE RICHARD G'
p338
(dp339
g3
I0
sg4
I0
sg5
I35812
sg6
I00
sg7
I0
sg8
S'richard.dimichele@enron.com'
p340
sg10
I694862
sg11
I0
sg12
I0
sg13
I0
sg14
I0
sg15
I374689
sg16
I0
sg17
I1000000
sg18
I8317782
sg19
I0
sg20
I0
sg21
I126027
sg22
I262788
sg23
I2368151
sg24
I8191755
sg25
F0.3
sg26
F0.3
ssS'BHATNAGAR SANJAY'
p341
(dp342
g3
I523
sg4
I0
sg5
I0
sg6
I00
sg7
I0
sg8
S'sanjay.bhatnagar@enron.com'
p343
sg10
I0
sg11
I15456290
sg12
I463
sg13
I0
sg14
I29
sg15
I137864
sg16
I137864
sg17
I0
sS'total_stock_value'
p344
I0
sg19
I0
sg20
I1
sg21
I-2604490
sg22
I0
sg23
I15456290
sg24
I2604490
sg25
F0.0019120458891013384
sg26
F0.0
ssS'CARTER REBECCA C'
p345
(dp346
g3
I312
sg4
I0
sg5
I0
sg6
I00
sg7
I-159792
sg8
S'rebecca.carter@enron.com'
p347
sg10
I75000
sg11
I-307301
sg12
I196
sg13
I0
sg14
I15
sg15
I540
sg16
I0
sg17
I300000
sg18
I0
sg19
I29
sg20
I7
sg21
I307301
sg22
I261809
sg23
I477557
sg24
I0
sg25
F0.022435897435897436
sg26
F1.9333333333333333
ssS'BUCHANAN HAROLD G'
p348
(dp349
g3
I1088
sg4
I0
sg5
I600
sg6
I00
sg7
I0
sg8
S'john.buchanan@enron.com'
p350
sg10
I304805
sg11
I0
sg12
I23
sg13
I0
sg14
I125
sg15
I1215
sg16
I0
sg17
I500000
sg18
I1014505
sg19
I0
sg20
I0
sg21
I189041
sg22
I248017
sg23
I1054637
sg24
I825464
sg25
F0.0
sg26
F0.0
ssS'YEAP SOON'
p351
(dp352
g3
I0
sg4
I0
sg5
I55097
sg6
I00
sg7
I0
sg8
I0
sg10
I0
sg11
I0
sg12
I0
sg13
I0
sg14
I0
sg15
I0
sg16
I0
sg17
I0
sg18
I192758
sg19
I0
sg20
I0
sg21
I0
sg22
I0
sg23
I55097
sg24
I192758
sg25
F0.3
sg26
F0.3
ssS'MURRAY JULIA H'
p353
(dp354
g3
I2192
sg4
I0
sg5
I57580
sg6
I00
sg7
I0
sg8
S'julia.murray@enron.com'
p355
sg10
I125000
sg11
I0
sg12
I395
sg13
I0
sg14
I45
sg15
I330
sg16
I0
sg17
I400000
sg18
I597461
sg19
I11
sg20
I2
sg21
I196983
sg22
I229284
sg23
I812194
sg24
I400478
sg25
F0.0009124087591240876
sg26
F0.24444444444444444
ssS'GARLAND C KEVIN'
p356
(dp357
g3
I209
sg4
I0
sg5
I48405
sg6
I00
sg7
I0
sg8
S'kevin.garland@enron.com'
p358
sg10
I375304
sg11
I0
sg12
I178
sg13
I0
sg14
I44
sg15
I60814
sg16
I0
sg17
I850000
sg18
I896153
sg19
I10
sg20
I27
sg21
I259907
sg22
I231946
sg23
I1566469
sg24
I636246
sg25
F0.1291866028708134
sg26
F0.22727272727272727
ssS'DODSON KEITH'
p359
(dp360
g3
I176
sg4
I0
sg5
I28164
sg6
I00
sg7
I0
sg8
S'keith.dodson@enron.com'
p361
sg10
I0
sg11
I0
sg12
I114
sg13
I0
sg14
I14
sg15
I774
sg16
I0
sg17
I70000
sg18
I0
sg19
I10
sg20
I3
sg21
I0
sg22
I221003
sg23
I319941
sg24
I0
sg25
F0.017045454545454544
sg26
F0.7142857142857143
ssS'YEAGER F SCOTT'
p362
(dp363
g3
I0
sg4
I0
sg5
I53947
sg6
I01
sg7
I0
sg8
S'scott.yeager@enron.com'
p364
sg10
I0
sg11
I0
sg12
I0
sg13
I0
sg14
I0
sg15
I147950
sg16
I0
sg17
I0
sg18
I11884758
sg19
I0
sg20
I0
sg21
I3576206
sg22
I158403
sg23
I360300
sg24
I8308552
sg25
F0.3
sg26
F0.3
ssS'HIRKO JOSEPH'
p365
(dp366
g3
I0
sg4
I10259
sg5
I77978
sg6
I01
sg7
I0
sg8
S'joe.hirko@enron.com'
p367
sg10
I0
sg11
I0
sg12
I0
sg13
I0
sg14
I0
sg15
I2856
sg16
I0
sg17
I0
sg18
I30766064
sg19
I0
sg20
I0
sg21
I0
sg22
I0
sg23
I91093
sg24
I30766064
sg25
F0.3
sg26
F0.3
ssS'DIETRICH JANET R'
p368
(dp369
g3
I2572
sg4
I0
sg5
I3475
sg6
I00
sg7
I0
sg8
S'janet.dietrich@enron.com'
p370
sg10
I556416
sg11
I0
sg12
I1902
sg13
I0
sg14
I63
sg15
I473
sg16
I0
sg17
I600000
sg18
I1865087
sg19
I305
sg20
I14
sg21
I315068
sg22
I250100
sg23
I1410464
sg24
I1550019
sg25
F0.005443234836702955
sg26
F4.841269841269841
ssS'DERRICK JR. JAMES V'
p371
(dp372
g3
I2181
sg4
I0
sg5
I51124
sg6
I00
sg7
I-1284000
sg8
S'james.derrick@enron.com'
p373
sg10
I484000
sg11
I-1787380
sg12
I1401
sg13
I0
sg14
I909
sg15
I7482
sg16
I0
sg17
I800000
sg18
I8831913
sg19
I64
sg20
I20
sg21
I1787380
sg22
I492375
sg23
I550981
sg24
I8831913
sg25
F0.009170105456212746
sg26
F0.0704070407040704
ssS'FREVERT MARK A'
p374
(dp375
g3
I3275
sg4
I6426990
sg5
I86987
sg6
I00
sg7
I-3367011
sg8
S'mark.frevert@enron.com'
p376
sg10
I1617011
sg11
I0
sg12
I2979
sg13
I2000000
sg14
I21
sg15
I7427621
sg16
I0
sg17
I2000000
sg18
I14622185
sg19
I242
sg20
I6
sg21
I4188667
sg22
I1060932
sg23
I17252530
sg24
I10433518
sg25
F0.00183206106870229
sg26
F11.523809523809524
ssS'PAI LOU L'
p377
(dp378
g3
I0
sg4
I0
sg5
I32047
sg6
I00
sg7
I0
sg8
S'lou.pai@enron.com'
p379
sg10
I0
sg11
I0
sg12
I0
sg13
I0
sg14
I0
sg15
I1829457
sg16
I0
sg17
I1000000
sg18
I23817930
sg19
I0
sg20
I0
sg21
I8453763
sg22
I261879
sg23
I3123383
sg24
I15364167
sg25
F0.3
sg26
F0.3
ssS'BAY FRANKLIN R'
p380
(dp381
g3
I0
sg4
I260455
sg5
I129142
sg6
I00
sg7
I-201641
sg8
S'frank.bay@enron.com'
p382
sg10
I0
sg11
I-82782
sg12
I0
sg13
I0
sg14
I0
sg15
I69
sg16
I0
sg17
I400000
sg18
I63014
sg19
I0
sg20
I0
sg21
I145796
sg22
I239671
sg23
I827696
sg24
I0
sg25
F0.3
sg26
F0.3
ssS'HAYSLETT RODERICK J'
p383
(dp384
g3
I2649
sg4
I0
sg5
I0
sg6
I00
sg7
I0
sg8
S'rod.hayslett@enron.com'
p385
sg10
I0
sg11
I0
sg12
I571
sg13
I0
sg14
I1061
sg15
I0
sg16
I0
sg17
I0
sg18
I346663
sg19
I35
sg20
I38
sg21
I346663
sg22
I0
sg23
I0
sg24
I0
sg25
F0.014345035862589657
sg26
F0.03298774740810556
ssS'FUGH JOHN L'
p386
(dp387
g3
I0
sg4
I50591
sg5
I0
sg6
I00
sg7
I0
sg8
I0
sg10
I0
sg11
I0
sg12
I0
sg13
I0
sg14
I0
sg15
I0
sg16
I0
sg17
I0
sg18
I176378
sg19
I0
sg20
I0
sg21
I0
sg22
I0
sg23
I50591
sg24
I176378
sg25
F0.3
sg26
F0.3
ssS'FALLON JAMES B'
p388
(dp389
g3
I1755
sg4
I0
sg5
I95924
sg6
I00
sg7
I0
sg8
S'jim.fallon@enron.com'
p390
sg10
I374347
sg11
I0
sg12
I1604
sg13
I0
sg14
I75
sg15
I401481
sg16
I0
sg17
I2500000
sg18
I2332399
sg19
I42
sg20
I37
sg21
I1392142
sg22
I304588
sg23
I3676340
sg24
I940257
sg25
F0.021082621082621083
sg26
F0.56
ssS'KOENIG MARK E'
p391
(dp392
g3
I2374
sg4
I0
sg5
I127017
sg6
I01
sg7
I0
sg8
S'mark.koenig@enron.com'
p393
sg10
I300000
sg11
I0
sg12
I2271
sg13
I0
sg14
I61
sg15
I150458
sg16
I0
sg17
I700000
sg18
I1920055
sg19
I53
sg20
I15
sg21
I1248318
sg22
I309946
sg23
I1587421
sg24
I671737
sg25
F0.006318449873631003
sg26
F0.8688524590163934
ssS'SAVAGE FRANK'
p394
(dp395
g3
I0
sg4
I0
sg5
I0
sg6
I00
sg7
I-121284
sg8
I0
sg10
I0
sg11
I0
sg12
I0
sg13
I0
sg14
I0
sg15
I0
sg16
I125034
sg17
I0
sg18
I0
sg19
I0
sg20
I0
sg21
I0
sg22
I0
sg23
I3750
sg24
I0
sg25
F0.3
sg26
F0.3
ssS'IZZO LAWRENCE L'
p396
(dp397
g3
I496
sg4
I0
sg5
I28093
sg6
I00
sg7
I0
sg8
S'larry.izzo@enron.com'
p398
sg10
I312500
sg11
I0
sg12
I437
sg13
I0
sg14
I19
sg15
I1553729
sg16
I0
sg17
I0
sg18
I5819980
sg19
I28
sg20
I5
sg21
I3654808
sg22
I85274
sg23
I1979596
sg24
I2165172
sg25
F0.010080645161290322
sg26
F1.4736842105263157
ssS'TILNEY ELIZABETH A'
p399
(dp400
g3
I460
sg4
I0
sg5
I0
sg6
I00
sg7
I-575000
sg8
S'elizabeth.tilney@enron.com'
p401
sg10
I275000
sg11
I0
sg12
I379
sg13
I0
sg14
I19
sg15
I152055
sg16
I0
sg17
I300000
sg18
I1168042
sg19
I10
sg20
I11
sg21
I576792
sg22
I247338
sg23
I399393
sg24
I591250
sg25
F0.02391304347826087
sg26
F0.5263157894736842
ssS'MARTIN AMANDA K'
p402
(dp403
g3
I1522
sg4
I85430
sg5
I8211
sg6
I00
sg7
I0
sg8
S'a..martin@enron.com'
p404
sg10
I5145434
sg11
I0
sg12
I477
sg13
I0
sg14
I230
sg15
I2818454
sg16
I0
sg17
I0
sg18
I2070306
sg19
I8
sg20
I0
sg21
I0
sg22
I349487
sg23
I8407016
sg24
I2070306
sg25
F0.0
sg26
F0.034782608695652174
ssS'BUY RICHARD B'
p405
(dp406
g3
I3523
sg4
I649584
sg5
I0
sg6
I00
sg7
I-694862
sg8
S'rick.buy@enron.com'
p407
sg10
I769862
sg11
I0
sg12
I2333
sg13
I0
sg14
I1053
sg15
I400572
sg16
I0
sg17
I900000
sg18
I3444470
sg19
I156
sg20
I71
sg21
I901657
sg22
I330546
sg23
I2355702
sg24
I2542813
sg25
F0.02015327845586148
sg26
F0.14814814814814814
ssS'GRAMM WENDY L'
p408
(dp409
g3
I0
sg4
I0
sg5
I0
sg6
I00
sg7
I0
sg8
I0
sg10
I0
sg11
I0
sg12
I0
sg13
I0
sg14
I0
sg15
I0
sg16
I119292
sg17
I0
sg18
I0
sg19
I0
sg20
I0
sg21
I0
sg22
I0
sg23
I119292
sg24
I0
sg25
F0.3
sg26
F0.3
ssS'CAUSEY RICHARD A'
p410
(dp411
g3
I1892
sg4
I0
sg5
I30674
sg6
I01
sg7
I-235000
sg8
S'richard.causey@enron.com'
p412
sg10
I350000
sg11
I0
sg12
I1585
sg13
I0
sg14
I49
sg15
I307895
sg16
I0
sg17
I1000000
sg18
I2502063
sg19
I58
sg20
I12
sg21
I2502063
sg22
I415189
sg23
I1868758
sg24
I0
sg25
F0.006342494714587738
sg26
F1.183673469387755
ssS'TAYLOR MITCHELL S'
p413
(dp414
g3
I533
sg4
I227449
sg5
I0
sg6
I00
sg7
I0
sg8
S'mitchell.taylor@enron.com'
p415
sg10
I0
sg11
I0
sg12
I300
sg13
I0
sg14
I29
sg15
I0
sg16
I0
sg17
I600000
sg18
I3745048
sg19
I0
sg20
I0
sg21
I563798
sg22
I265214
sg23
I1092663
sg24
I3181250
sg25
F0.0
sg26
F0.0
ssS'DONAHUE JR JEFFREY M'
p416
(dp417
g3
I865
sg4
I0
sg5
I96268
sg6
I00
sg7
I-300000
sg8
S'jeff.donahue@enron.com'
p418
sg10
I0
sg11
I0
sg12
I772
sg13
I0
sg14
I22
sg15
I891
sg16
I0
sg17
I800000
sg18
I1080988
sg19
I188
sg20
I11
sg21
I315068
sg22
I278601
sg23
I875760
sg24
I765920
sg25
F0.012716763005780347
sg26
F8.545454545454545
ssS'GLISAN JR BEN F'
p419
(dp420
g3
I873
sg4
I0
sg5
I125978
sg6
I01
sg7
I0
sg8
S'ben.glisan@enron.com'
p421
sg10
I71023
sg11
I0
sg12
I874
sg13
I0
sg14
I16
sg15
I200308
sg16
I0
sg17
I600000
sg18
I778546
sg19
I52
sg20
I6
sg21
I393818
sg22
I274975
sg23
I1272284
sg24
I384728
sg25
F0.006872852233676976
sg26
F3.25
ss.